; Function Attrs: mustprogress uwtable
define noundef range(i64 0, 2) i64 @_ZN32pxrInternal_v0_24__pxrReserved__15HdSceneDelegate13SamplePrimvarERKNS_7SdfPathERKNS_7TfTokenEmPfPNS_7VtValueE(ptr noundef nonnull align 8 dereferenceable(24) %0, ptr noundef nonnull align 4 dereferenceable(8) %1, ptr noundef nonnull align 8 dereferenceable(8) %2, i64 noundef %3, ptr noundef writeonly captures(none) %4, ptr noundef %5) unnamed_addr #0 align 2 personality ptr @__gxx_personality_v0 {
  %7 = alloca %"class.pxrInternal_v0_24__pxrReserved__::VtValue", align 8
  %.not = icmp eq i64 %3, 0
  br i1 %.not, label %_ZN32pxrInternal_v0_24__pxrReserved__7VtValueD2Ev.exit, label %8

8:                                                ; preds = %6
  store float 0.000000e+00, ptr %4, align 4
  %9 = load ptr, ptr %0, align 8
  %10 = getelementptr inbounds nuw i8, ptr %9, i64 120
  %11 = load ptr, ptr %10, align 8
  call void %11(ptr dead_on_unwind nonnull writable sret(%"class.pxrInternal_v0_24__pxrReserved__::VtValue") align 8 %7, ptr noundef nonnull align 8 dereferenceable(24) %0, ptr noundef nonnull align 4 dereferenceable(8) %1, ptr noundef nonnull align 8 dereferenceable(8) %2)
  %.not.i = icmp eq ptr %5, %7
  br i1 %.not.i, label %_ZN32pxrInternal_v0_24__pxrReserved__7VtValueaSEOS0_.exit, label %12

12:                                               ; preds = %8
  call void @_ZN32pxrInternal_v0_24__pxrReserved__7VtValue5_MoveERS0_S1_(ptr noundef nonnull align 8 dereferenceable(16) %7, ptr noundef nonnull align 8 dereferenceable(16) %5) #14
  br label %_ZN32pxrInternal_v0_24__pxrReserved__7VtValueaSEOS0_.exit

_ZN32pxrInternal_v0_24__pxrReserved__7VtValueaSEOS0_.exit: ; preds = %8, %12
  %13 = getelementptr inbounds nuw i8, ptr %7, i64 8
  %14 = load ptr, ptr %13, align 8
  %15 = ptrtoint ptr %14 to i64
  %.not.i.i = icmp eq ptr %14, null
  %16 = and i64 %15, 3
  %17 = icmp eq i64 %16, 3
  %or.cond.i.i = or i1 %.not.i.i, %17
  br i1 %or.cond.i.i, label %_ZN32pxrInternal_v0_24__pxrReserved__7VtValueD2Ev.exit, label %18

18:                                               ; preds = %_ZN32pxrInternal_v0_24__pxrReserved__7VtValueaSEOS0_.exit
  %19 = and i64 %15, -8
  %20 = inttoptr i64 %19 to ptr
  %21 = getelementptr inbounds nuw i8, ptr %20, i64 32
  %22 = load ptr, ptr %21, align 8
  invoke void %22(ptr noundef nonnull align 8 dereferenceable(16) %7)
          to label %_ZN32pxrInternal_v0_24__pxrReserved__7VtValueD2Ev.exit unwind label %23

23:                                               ; preds = %18
  %24 = landingpad { ptr, i32 }
          catch ptr null
  %25 = extractvalue { ptr, i32 } %24, 0
  call void @__clang_call_terminate(ptr %25) #13
  unreachable

_ZN32pxrInternal_v0_24__pxrReserved__7VtValueD2Ev.exit: ; preds = %18, %_ZN32pxrInternal_v0_24__pxrReserved__7VtValueaSEOS0_.exit, %6
  %.0 = phi i64 [ 0, %6 ], [ 1, %_ZN32pxrInternal_v0_24__pxrReserved__7VtValueaSEOS0_.exit ], [ 1, %18 ]
  ret i64 %.0
}